Certificate:
    Data:
        Version: 3 (0x2)
        Serial Number:
            f7:5d:cb:f0:67:c1:4f:88:d8:86:d4:d6:d2:91:15:ab
        Signature Algorithm: sha256WithRSAEncryption
        Issuer: CN=oracle
        Validity
            Not Before: Jul 22 05:23:19 2024 GMT
            Not After : Oct 25 05:23:19 2026 GMT
        Subject: CN=esp32-1
        Subject Public Key Info:
            Public Key Algorithm: rsaEncryption
                Public-Key: (2048 bit)
                Modulus:
                    00:c3:ea:7c:a4:6b:25:45:aa:97:92:b8:49:c9:97:
                    a6:2e:97:42:39:8b:57:d8:0f:ff:23:5b:c1:2a:fc:
                    e5:56:f8:75:f4:17:f7:d6:ea:1b:e8:78:83:35:0c:
                    f8:e8:49:3e:b4:e1:69:cf:95:8e:05:f3:2a:03:76:
                    62:36:c2:d5:e3:cd:ec:27:a1:b7:3d:8c:a0:8f:d4:
                    dc:32:a5:10:94:e3:f9:45:fa:c5:f8:54:25:55:de:
                    17:d4:d8:ce:82:d6:e7:64:5d:86:b0:f2:1a:06:60:
                    4d:35:fd:f0:af:81:66:6b:26:b2:b0:98:d8:34:8d:
                    b3:4c:cd:78:08:86:8e:08:70:d8:ec:f9:3c:e9:94:
                    86:ff:cc:74:0d:93:0a:1f:35:b3:98:72:d5:e1:cf:
                    58:2a:ec:e0:ff:fe:75:bf:6a:4b:5f:27:b7:ad:ff:
                    e5:ff:71:72:c3:a4:94:51:c2:6e:37:4d:ee:16:e4:
                    c6:a5:bd:e0:58:5b:45:b2:81:c6:77:1d:d6:99:d4:
                    c6:8c:99:8c:2c:29:2b:7e:0c:0d:80:57:a2:04:53:
                    96:7c:54:f5:58:41:1a:91:a6:a6:5f:73:50:ae:2f:
                    50:64:b3:19:07:55:6c:7d:14:18:24:27:a7:02:28:
                    f3:e8:17:fb:65:d8:78:0e:89:52:9e:df:84:ac:ed:
                    43:81
                Exponent: 65537 (0x10001)
        X509v3 extensions:
            X509v3 Basic Constraints: 
                CA:FALSE
            X509v3 Subject Key Identifier: 
                1B:B6:5B:6E:86:FF:27:C4:F9:DB:41:3F:68:20:D8:02:D1:24:1A:CF
            X509v3 Authority Key Identifier: 
                keyid:C6:E2:EF:6B:E8:8A:01:35:43:7E:13:1A:4E:9D:65:4E:3B:CC:44:23
                DirName:/CN=oracle
                serial:5A:F6:7E:96:5B:B5:2F:02:C0:6D:54:26:CE:2C:51:BC:36:31:A3:C7
            X509v3 Extended Key Usage: 
                TLS Web Client Authentication
            X509v3 Key Usage: 
                Digital Signature
    Signature Algorithm: sha256WithRSAEncryption
    Signature Value:
        03:cc:72:89:66:79:cf:0c:85:d5:36:c0:2d:73:3b:b1:32:7c:
        a1:76:10:b5:17:43:81:b3:e6:2d:7b:ba:1e:f4:fc:0c:c7:12:
        c8:e9:8a:09:c4:2f:38:a8:82:a7:f0:5c:2f:6d:16:ee:a7:08:
        e0:4f:de:f7:8c:7b:4d:46:0c:d3:4d:20:98:92:b1:b3:3c:2a:
        07:e9:0a:ec:66:0c:10:cb:76:5b:79:d1:a1:4a:01:a7:57:0a:
        1e:c3:b7:0c:d6:b9:bc:ec:87:37:a6:8a:d4:31:5c:21:72:60:
        f6:cd:8a:56:a8:6a:38:e2:15:62:c0:67:49:dc:6d:18:7e:05:
        1c:5b:ee:d3:96:fb:e9:0e:a3:5f:be:e8:bd:6a:f5:61:6b:f2:
        79:df:53:2c:4f:0a:35:3d:61:48:50:91:1b:59:48:fe:67:91:
        b4:4b:d5:92:48:86:95:d9:5a:2a:13:72:b3:db:8e:23:64:d2:
        0e:58:3f:3e:a5:a3:33:6b:6d:7c:ed:e1:cb:d7:4e:4e:fd:21:
        ce:bc:4e:0e:bc:87:cf:7c:04:9d:dd:2e:3f:11:0f:12:83:50:
        8f:59:f6:96:bd:ee:97:e3:bd:bf:e1:bf:c4:6a:f0:44:8b:ec:
        83:65:12:d2:eb:77:17:20:5f:69:f6:88:b6:4e:dc:d9:c7:30:
        a6:66:a5:4f
-----BEGIN CERTIFICATE-----
MIIDTDCCAjSgAwIBAgIRAPddy/BnwU+I2IbU1tKRFaswDQYJKoZIhvcNAQELBQAw
ETEPMA0GA1UEAwwGb3JhY2xlMB4XDTI0MDcyMjA1MjMxOVoXDTI2MTAyNTA1MjMx
OVowEjEQMA4GA1UEAwwHZXNwMzItMTCCASIwDQYJKoZIhvcNAQEBBQADggEPADCC
AQoCggEBAMPqfKRrJUWql5K4ScmXpi6XQjmLV9gP/yNbwSr85Vb4dfQX99bqG+h4
gzUM+OhJPrThac+VjgXzKgN2YjbC1ePN7Cehtz2MoI/U3DKlEJTj+UX6xfhUJVXe
F9TYzoLW52RdhrDyGgZgTTX98K+BZmsmsrCY2DSNs0zNeAiGjghw2Oz5POmUhv/M
dA2TCh81s5hy1eHPWCrs4P/+db9qS18nt63/5f9xcsOklFHCbjdN7hbkxqW94Fhb
RbKBxncd1pnUxoyZjCwpK34MDYBXogRTlnxU9VhBGpGmpl9zUK4vUGSzGQdVbH0U
GCQnpwIo8+gX+2XYeA6JUp7fhKztQ4ECAwEAAaOBnTCBmjAJBgNVHRMEAjAAMB0G
A1UdDgQWBBQbtltuhv8nxPnbQT9oINgC0SQazzBMBgNVHSMERTBDgBTG4u9r6IoB
NUN+ExpOnWVOO8xEI6EVpBMwETEPMA0GA1UEAwwGb3JhY2xlghRa9n6WW7UvAsBt
VCbOLFG8NjGjxzATBgNVHSUEDDAKBggrBgEFBQcDAjALBgNVHQ8EBAMCB4AwDQYJ
KoZIhvcNAQELBQADggEBAAPMcolmec8MhdU2wC1zO7EyfKF2ELUXQ4Gz5i17uh70
/AzHEsjpignELziogqfwXC9tFu6nCOBP3veMe01GDNNNIJiSsbM8KgfpCuxmDBDL
dlt50aFKAadXCh7DtwzWubzshzemitQxXCFyYPbNilaoajjiFWLAZ0ncbRh+BRxb
7tOW++kOo1++6L1q9WFr8nnfUyxPCjU9YUhQkRtZSP5nkbRL1ZJIhpXZWioTcrPb
jiNk0g5YPz6lozNrbXzt4cvXTk79Ic68Tg68h898BJ3dLj8RDxKDUI9Z9pa97pfj
vb/hv8Rq8ESL7INlEtLrdxcgX2n2iLZO3NnHMKZmpU8=
-----END CERTIFICATE-----
